target datalayout = "e-m:e-p270:32:32-p271:32:32-p272:64:64-i64:64-i128:128-f80:128-n8:16:32:64-S128"
target triple = "x86_64-pc-linux-gnu"

@pg_file_create_mode = external global i32, align 4
@.str.3 = private unnamed_addr constant [67 x i8] c"error while copying relation \22%s.%s\22: could not open file \22%s\22: %m\00", align 1
@.str.4 = private unnamed_addr constant [69 x i8] c"error while copying relation \22%s.%s\22: could not create file \22%s\22: %m\00", align 1
@.str.7 = private unnamed_addr constant [86 x i8] c"error while copying relation \22%s.%s\22: could not copy file range from \22%s\22 to \22%s\22: %m\00", align 1

; Function Attrs: nounwind uwtable
define dso_local void @copyFileByRange(ptr noundef %0, ptr noundef %1, ptr noundef %2, ptr noundef %3) #0 {
  %5 = alloca ptr, align 8
  %6 = alloca ptr, align 8
  %7 = alloca ptr, align 8
  %8 = alloca ptr, align 8
  %9 = alloca i32, align 4
  %10 = alloca i32, align 4
  %11 = alloca i64, align 8
  store ptr %0, ptr %5, align 8
  store ptr %1, ptr %6, align 8
  store ptr %2, ptr %7, align 8
  store ptr %3, ptr %8, align 8
  call void @llvm.lifetime.start.p0(i64 4, ptr %9) #7
  call void @llvm.lifetime.start.p0(i64 4, ptr %10) #7
  call void @llvm.lifetime.start.p0(i64 8, ptr %11) #7
  %12 = load ptr, ptr %5, align 8
  %13 = call i32 (ptr, i32, ...) @open(ptr noundef %12, i32 noundef 0, i32 noundef 0)
  store i32 %13, ptr %9, align 4
  %14 = icmp slt i32 %13, 0
  br i1 %14, label %15, label %19

15:                                               ; preds = %4
  %16 = load ptr, ptr %7, align 8
  %17 = load ptr, ptr %8, align 8
  %18 = load ptr, ptr %5, align 8
  call void (ptr, ...) @pg_fatal(ptr noundef @.str.3, ptr noundef %16, ptr noundef %17, ptr noundef %18) #8
  unreachable

19:                                               ; preds = %4
  %20 = load ptr, ptr %6, align 8
  %21 = load i32, ptr @pg_file_create_mode, align 4
  %22 = call i32 (ptr, i32, ...) @open(ptr noundef %20, i32 noundef 194, i32 noundef %21)
  store i32 %22, ptr %10, align 4
  %23 = icmp slt i32 %22, 0
  br i1 %23, label %24, label %28

24:                                               ; preds = %19
  %25 = load ptr, ptr %7, align 8
  %26 = load ptr, ptr %8, align 8
  %27 = load ptr, ptr %6, align 8
  call void (ptr, ...) @pg_fatal(ptr noundef @.str.4, ptr noundef %25, ptr noundef %26, ptr noundef %27) #8
  unreachable

28:                                               ; preds = %19
  br label %29

29:                                               ; preds = %41, %28
  %30 = load i32, ptr %9, align 4
  %31 = load i32, ptr %10, align 4
  %32 = call i64 @copy_file_range(i32 noundef %30, ptr noundef null, i32 noundef %31, ptr noundef null, i64 noundef 9223372036854775807, i32 noundef 0)
  store i64 %32, ptr %11, align 8
  %33 = load i64, ptr %11, align 8
  %34 = icmp slt i64 %33, 0
  br i1 %34, label %35, label %40

35:                                               ; preds = %29
  %36 = load ptr, ptr %7, align 8
  %37 = load ptr, ptr %8, align 8
  %38 = load ptr, ptr %5, align 8
  %39 = load ptr, ptr %6, align 8
  call void (ptr, ...) @pg_fatal(ptr noundef @.str.7, ptr noundef %36, ptr noundef %37, ptr noundef %38, ptr noundef %39) #8
  unreachable

40:                                               ; preds = %29
  br label %41

41:                                               ; preds = %40
  %42 = load i64, ptr %11, align 8
  %43 = icmp sgt i64 %42, 0
  br i1 %43, label %29, label %44, !llvm.loop !10

44:                                               ; preds = %41
  %45 = load i32, ptr %9, align 4
  %46 = call i32 @close(i32 noundef %45)
  %47 = load i32, ptr %10, align 4
  %48 = call i32 @close(i32 noundef %47)
  call void @llvm.lifetime.end.p0(i64 8, ptr %11) #7
  call void @llvm.lifetime.end.p0(i64 4, ptr %10) #7
  call void @llvm.lifetime.end.p0(i64 4, ptr %9) #7
  ret void
}