; Function Attrs: nounwind uwtable
define dso_local void @copyFileByRange(ptr noundef %0, ptr noundef %1, ptr noundef %2, ptr noundef %3) local_unnamed_addr #2 {
  %5 = tail call i32 (ptr, i32, ...) @open(ptr noundef %0, i32 noundef 0, i32 noundef 0) #10
  %6 = icmp slt i32 %5, 0
  br i1 %6, label %7, label %8

7:                                                ; preds = %4
  tail call void (ptr, ...) @pg_fatal(ptr noundef nonnull @.str.3, ptr noundef %2, ptr noundef %3, ptr noundef %0) #11
  unreachable

8:                                                ; preds = %4
  %9 = load i32, ptr @pg_file_create_mode, align 4
  %10 = tail call i32 (ptr, i32, ...) @open(ptr noundef %1, i32 noundef 194, i32 noundef %9) #10
  %11 = icmp slt i32 %10, 0
  br i1 %11, label %12, label %.preheader

12:                                               ; preds = %8
  tail call void (ptr, ...) @pg_fatal(ptr noundef nonnull @.str.4, ptr noundef %2, ptr noundef %3, ptr noundef %1) #11
  unreachable

.preheader:                                       ; preds = %8, %16
  %13 = tail call i64 @copy_file_range(i32 noundef %5, ptr noundef null, i32 noundef %10, ptr noundef null, i64 noundef 9223372036854775807, i32 noundef 0) #10
  %14 = icmp slt i64 %13, 0
  br i1 %14, label %15, label %16

15:                                               ; preds = %.preheader
  tail call void (ptr, ...) @pg_fatal(ptr noundef nonnull @.str.7, ptr noundef %2, ptr noundef %3, ptr noundef %0, ptr noundef %1) #11
  unreachable

16:                                               ; preds = %.preheader
  %.not = icmp eq i64 %13, 0
  br i1 %.not, label %17, label %.preheader, !llvm.loop !10

17:                                               ; preds = %16
  %18 = tail call i32 @close(i32 noundef %5) #10
  %19 = tail call i32 @close(i32 noundef %10) #10
  ret void
}